; Function Attrs: nounwind uwtable
define internal noundef zeroext i1 @X11_WarpMouse(ptr noundef %0, float noundef %1, float noundef %2) #0 {
  %4 = getelementptr inbounds nuw i8, ptr %0, i64 392
  %5 = load ptr, ptr %4, align 8
  %6 = tail call ptr @SDL_GetVideoDevice() #5
  %7 = tail call zeroext i1 @X11_WarpMouseXTest(ptr noundef %6, ptr noundef %0, float noundef %1, float noundef %2) #5
  br i1 %7, label %15, label %8

8:                                                ; preds = %3
  %9 = getelementptr inbounds nuw i8, ptr %5, i64 392
  %10 = load i8, ptr %9, align 8, !range !8, !noundef !9
  %11 = icmp eq i8 %10, 0
  br i1 %11, label %12, label %15

12:                                               ; preds = %8
  %13 = getelementptr inbounds nuw i8, ptr %5, i64 8
  %14 = load i64, ptr %13, align 8
  tail call fastcc void @X11_WarpMouseInternal(i64 noundef %14, float noundef %1, float noundef %2)
  br label %15

15:                                               ; preds = %8, %12, %3
  ret i1 true
}